; Function Attrs: null_pointer_is_valid sspstrong uwtable
define internal void @write_pdu_label_and_info(ptr noundef %0, ptr noundef readonly captures(none) %1, ptr noundef %2, ...) unnamed_addr #0 {
  %4 = alloca [1 x %struct.__va_list_tag], align 16
  call void @llvm.lifetime.start.p0(i64 24, ptr nonnull %4) #15
  call void @llvm.va_start.p0(ptr nonnull %4)
  %5 = call i32 @__vsnprintf_chk(ptr noundef nonnull @write_pdu_label_and_info.info_buffer, i64 noundef 256, i32 noundef 2, i64 noundef 256, ptr noundef %2, ptr noundef nonnull %4) #15
  call void @llvm.va_end.p0(ptr nonnull %4)
  %6 = getelementptr inbounds nuw i8, ptr %1, i64 8
  %7 = load ptr, ptr %6, align 8
  call void @col_append_str(ptr noundef %7, i32 noundef 25, ptr noundef nonnull @write_pdu_label_and_info.info_buffer)
  call void (ptr, ptr, ...) @proto_item_append_text(ptr noundef %0, ptr noundef nonnull @.str.290, ptr noundef nonnull @write_pdu_label_and_info.info_buffer)
  call void @llvm.lifetime.end.p0(i64 24, ptr nonnull %4) #15
  ret void
}